; Function Attrs: nounwind uwtable
define hidden ptr @SDL_MapGPUTransferBuffer_REAL(ptr noundef readonly captures(address_is_null) %0, ptr noundef %1, i1 noundef zeroext %2) local_unnamed_addr #0 {
  %4 = icmp eq ptr %0, null
  br i1 %4, label %5, label %7

5:                                                ; preds = %3
  %6 = tail call zeroext i1 (ptr, ...) @SDL_SetError_REAL(ptr noundef nonnull @.str.3) #7
  br label %17

7:                                                ; preds = %3
  %8 = icmp eq ptr %1, null
  br i1 %8, label %9, label %11

9:                                                ; preds = %7
  %10 = tail call zeroext i1 (ptr, ...) @SDL_SetError_REAL(ptr noundef nonnull @.str.4, ptr noundef nonnull @.str.282) #7
  br label %17

11:                                               ; preds = %7
  %12 = getelementptr inbounds nuw i8, ptr %0, i64 408
  %13 = load ptr, ptr %12, align 8
  %14 = getelementptr inbounds nuw i8, ptr %0, i64 664
  %15 = load ptr, ptr %14, align 8
  %16 = tail call ptr %13(ptr noundef %15, ptr noundef nonnull %1, i1 noundef zeroext %2) #7
  br label %17

17:                                               ; preds = %11, %9, %5
  %.0 = phi ptr [ null, %5 ], [ null, %9 ], [ %16, %11 ]
  ret ptr %.0
}